; Function Attrs: mustprogress nounwind uwtable
define dso_local void @_ZN4llvm14CombinerHelper27applyCombineUnmergeConstantERNS_12MachineInstrERNS_15SmallVectorImplINS_5APIntEEE(ptr nocapture noundef nonnull readonly align 8 dereferenceable(72) %0, ptr noundef nonnull align 8 dereferenceable(70) %1, ptr nocapture noundef nonnull readonly align 8 dereferenceable(16) %2) local_unnamed_addr #0 align 2 {
  %4 = alloca %"class.llvm::DstOp", align 8
  %5 = getelementptr inbounds nuw i8, ptr %1, i64 40
  %6 = load i24, ptr %5, align 8
  %7 = zext i24 %6 to i32
  %8 = add nsw i32 %7, -1
  %.not = icmp eq i32 %8, 0
  br i1 %.not, label %._crit_edge, label %.lr.ph

.lr.ph:                                           ; preds = %3
  %9 = getelementptr inbounds nuw i8, ptr %1, i64 32
  %10 = getelementptr inbounds nuw i8, ptr %4, i64 8
  %wide.trip.count = zext i32 %8 to i64
  br label %11

11:                                               ; preds = %.lr.ph, %11
  %indvars.iv = phi i64 [ 0, %.lr.ph ], [ %indvars.iv.next, %11 ]
  %12 = load ptr, ptr %9, align 8
  %13 = getelementptr inbounds %"class.llvm::MachineOperand", ptr %12, i64 %indvars.iv, i32 1
  %14 = load i32, ptr %13, align 4
  %15 = load ptr, ptr %0, align 8
  store i32 %14, ptr %4, align 8
  store i32 1, ptr %10, align 8
  %16 = load ptr, ptr %2, align 8
  %17 = getelementptr inbounds %"class.llvm::APInt", ptr %16, i64 %indvars.iv
  %18 = call { ptr, ptr } @_ZN4llvm16MachineIRBuilder13buildConstantERKNS_5DstOpERKNS_5APIntE(ptr noundef nonnull align 8 dereferenceable(88) %15, ptr noundef nonnull align 8 dereferenceable(12) %4, ptr noundef nonnull align 8 dereferenceable(12) %17) #27
  %indvars.iv.next = add nuw nsw i64 %indvars.iv, 1
  %exitcond.not = icmp eq i64 %indvars.iv.next, %wide.trip.count
  br i1 %exitcond.not, label %._crit_edge, label %11, !llvm.loop !66

._crit_edge:                                      ; preds = %11, %3
  call void @_ZN4llvm12MachineInstr15eraseFromParentEv(ptr noundef nonnull align 8 dereferenceable(70) %1) #27
  ret void
}